; ModuleID = 'source-C-CXX/11/1386.cpp'
source_filename = "source-C-CXX/11/1386.cpp"
target datalayout = "e-m:e-p270:32:32-p271:32:32-p272:64:64-i64:64-f80:128-n8:16:32:64-S128"
target triple = "x86_64-pc-linux-gnu"

%"class.std::ios_base::Init" = type { i8 }
%"class.std::basic_istream" = type { i32 (...)**, i64, %"class.std::basic_ios" }
%"class.std::basic_ios" = type { %"class.std::ios_base", %"class.std::basic_ostream"*, i8, i8, %"class.std::basic_streambuf"*, %"class.std::ctype"*, %"class.std::num_put"*, %"class.std::num_get"* }
%"class.std::ios_base" = type { i32 (...)**, i64, i64, i32, i32, i32, %"struct.std::ios_base::_Callback_list"*, %"struct.std::ios_base::_Words", [8 x %"struct.std::ios_base::_Words"], i32, %"struct.std::ios_base::_Words"*, %"class.std::locale" }
%"struct.std::ios_base::_Callback_list" = type { %"struct.std::ios_base::_Callback_list"*, void (i32, %"class.std::ios_base"*, i32)*, i32, i32 }
%"struct.std::ios_base::_Words" = type { i8*, i64 }
%"class.std::locale" = type { %"class.std::locale::_Impl"* }
%"class.std::locale::_Impl" = type { i32, %"class.std::locale::facet"**, i64, %"class.std::locale::facet"**, i8** }
%"class.std::locale::facet" = type <{ i32 (...)**, i32, [4 x i8] }>
%"class.std::basic_ostream" = type { i32 (...)**, %"class.std::basic_ios" }
%"class.std::basic_streambuf" = type { i32 (...)**, i8*, i8*, i8*, i8*, i8*, i8*, %"class.std::locale" }
%"class.std::ctype" = type <{ %"class.std::locale::facet.base", [4 x i8], %struct.__locale_struct*, i8, [7 x i8], i32*, i32*, i16*, i8, [256 x i8], [256 x i8], i8, [6 x i8] }>
%"class.std::locale::facet.base" = type <{ i32 (...)**, i32 }>
%struct.__locale_struct = type { [13 x %struct.__locale_data*], i16*, i32*, i32*, [13 x i8*] }
%struct.__locale_data = type opaque
%"class.std::num_put" = type { %"class.std::locale::facet.base", [4 x i8] }
%"class.std::num_get" = type { %"class.std::locale::facet.base", [4 x i8] }

@_ZStL8__ioinit = internal global %"class.std::ios_base::Init" zeroinitializer, align 1
@__dso_handle = external hidden global i8
@_ZSt3cin = external global %"class.std::basic_istream", align 8
@_ZSt4cout = external global %"class.std::basic_ostream", align 8
@llvm.global_ctors = appending global [1 x { i32, void ()*, i8* }] [{ i32, void ()*, i8* } { i32 65535, void ()* @_GLOBAL__sub_I_1386.cpp, i8* null }]

declare void @_ZNSt8ios_base4InitC1Ev(%"class.std::ios_base::Init"* nonnull align 1 dereferenceable(1)) unnamed_addr #0

; Function Attrs: nounwind
declare void @_ZNSt8ios_base4InitD1Ev(%"class.std::ios_base::Init"* nonnull align 1 dereferenceable(1)) unnamed_addr #1

; Function Attrs: nofree nounwind
declare i32 @__cxa_atexit(void (i8*)*, i8*, i8*) local_unnamed_addr #2

; Function Attrs: mustprogress norecurse sspstrong uwtable
define dso_local i32 @main() local_unnamed_addr #3 {
  %1 = alloca [16 x i32], align 16
  %2 = bitcast [16 x i32]* %1 to i8*
  call void @llvm.lifetime.start.p0i8(i64 64, i8* nonnull %2) #8
  %3 = getelementptr inbounds [16 x i32], [16 x i32]* %1, i64 0, i64 0
  %4 = call nonnull align 8 dereferenceable(16) %"class.std::basic_istream"* @_ZNSirsERi(%"class.std::basic_istream"* nonnull align 8 dereferenceable(16) @_ZSt3cin, i32* nonnull align 4 dereferenceable(4) %3)
  %5 = load i32, i32* %3, align 16, !tbaa !5
  %6 = icmp eq i32 %5, -1
  br i1 %6, label %162, label %7

7:                                                ; preds = %0, %155
  %8 = phi i32 [ %160, %155 ], [ %5, %0 ]
  %9 = icmp eq i32 %8, 0
  br i1 %9, label %127, label %23

10:                                               ; preds = %23
  %11 = zext i32 %26 to i64
  %12 = and i64 %11, 2147483640
  %13 = add nsw i64 %12, -8
  %14 = lshr exact i64 %13, 3
  %15 = add nuw nsw i64 %14, 1
  %16 = icmp ult i32 %25, 7
  %17 = and i64 %11, 2147483640
  %18 = and i64 %15, 1
  %19 = icmp eq i64 %13, 0
  %20 = and i64 %15, 4611686018427387902
  %21 = icmp eq i64 %18, 0
  %22 = icmp eq i64 %17, %11
  br label %32

23:                                               ; preds = %7, %23
  %24 = phi i64 [ %29, %23 ], [ 1, %7 ]
  %25 = phi i32 [ %26, %23 ], [ 0, %7 ]
  %26 = add nuw nsw i32 %25, 1
  %27 = getelementptr inbounds [16 x i32], [16 x i32]* %1, i64 0, i64 %24
  %28 = call nonnull align 8 dereferenceable(16) %"class.std::basic_istream"* @_ZNSirsERi(%"class.std::basic_istream"* nonnull align 8 dereferenceable(16) @_ZSt3cin, i32* nonnull align 4 dereferenceable(4) %27)
  %29 = add nuw i64 %24, 1
  %30 = load i32, i32* %27, align 4, !tbaa !5
  %31 = icmp eq i32 %30, 0
  br i1 %31, label %10, label %23, !llvm.loop !9

32:                                               ; preds = %10, %123
  %33 = phi i64 [ 0, %10 ], [ %125, %123 ]
  %34 = phi i32 [ 0, %10 ], [ %124, %123 ]
  %35 = getelementptr inbounds [16 x i32], [16 x i32]* %1, i64 0, i64 %33
  %36 = load i32, i32* %35, align 4, !tbaa !5
  %37 = srem i32 %36, 2
  %38 = icmp eq i32 %37, 1
  br i1 %38, label %123, label %39

39:                                               ; preds = %32
  br i1 %16, label %109, label %40

40:                                               ; preds = %39
  %41 = insertelement <4 x i32> <i32 poison, i32 0, i32 0, i32 0>, i32 %34, i32 0
  %42 = insertelement <4 x i32> poison, i32 %36, i32 0
  %43 = shufflevector <4 x i32> %42, <4 x i32> poison, <4 x i32> zeroinitializer
  %44 = insertelement <4 x i32> poison, i32 %36, i32 0
  %45 = shufflevector <4 x i32> %44, <4 x i32> poison, <4 x i32> zeroinitializer
  br i1 %19, label %83, label %46

46:                                               ; preds = %40, %46
  %47 = phi i64 [ %80, %46 ], [ 0, %40 ]
  %48 = phi <4 x i32> [ %78, %46 ], [ %41, %40 ]
  %49 = phi <4 x i32> [ %79, %46 ], [ zeroinitializer, %40 ]
  %50 = phi i64 [ %81, %46 ], [ %20, %40 ]
  %51 = getelementptr inbounds [16 x i32], [16 x i32]* %1, i64 0, i64 %47
  %52 = bitcast i32* %51 to <4 x i32>*
  %53 = load <4 x i32>, <4 x i32>* %52, align 16, !tbaa !5
  %54 = getelementptr inbounds i32, i32* %51, i64 4
  %55 = bitcast i32* %54 to <4 x i32>*
  %56 = load <4 x i32>, <4 x i32>* %55, align 16, !tbaa !5
  %57 = shl nsw <4 x i32> %53, <i32 1, i32 1, i32 1, i32 1>
  %58 = shl nsw <4 x i32> %56, <i32 1, i32 1, i32 1, i32 1>
  %59 = icmp eq <4 x i32> %43, %57
  %60 = icmp eq <4 x i32> %45, %58
  %61 = zext <4 x i1> %59 to <4 x i32>
  %62 = zext <4 x i1> %60 to <4 x i32>
  %63 = add <4 x i32> %48, %61
  %64 = add <4 x i32> %49, %62
  %65 = or i64 %47, 8
  %66 = getelementptr inbounds [16 x i32], [16 x i32]* %1, i64 0, i64 %65
  %67 = bitcast i32* %66 to <4 x i32>*
  %68 = load <4 x i32>, <4 x i32>* %67, align 16, !tbaa !5
  %69 = getelementptr inbounds i32, i32* %66, i64 4
  %70 = bitcast i32* %69 to <4 x i32>*
  %71 = load <4 x i32>, <4 x i32>* %70, align 16, !tbaa !5
  %72 = shl nsw <4 x i32> %68, <i32 1, i32 1, i32 1, i32 1>
  %73 = shl nsw <4 x i32> %71, <i32 1, i32 1, i32 1, i32 1>
  %74 = icmp eq <4 x i32> %43, %72
  %75 = icmp eq <4 x i32> %45, %73
  %76 = zext <4 x i1> %74 to <4 x i32>
  %77 = zext <4 x i1> %75 to <4 x i32>
  %78 = add <4 x i32> %63, %76
  %79 = add <4 x i32> %64, %77
  %80 = add nuw i64 %47, 16
  %81 = add i64 %50, -2
  %82 = icmp eq i64 %81, 0
  br i1 %82, label %83, label %46, !llvm.loop !11

83:                                               ; preds = %46, %40
  %84 = phi <4 x i32> [ undef, %40 ], [ %78, %46 ]
  %85 = phi <4 x i32> [ undef, %40 ], [ %79, %46 ]
  %86 = phi i64 [ 0, %40 ], [ %80, %46 ]
  %87 = phi <4 x i32> [ %41, %40 ], [ %78, %46 ]
  %88 = phi <4 x i32> [ zeroinitializer, %40 ], [ %79, %46 ]
  br i1 %21, label %104, label %89

89:                                               ; preds = %83
  %90 = getelementptr inbounds [16 x i32], [16 x i32]* %1, i64 0, i64 %86
  %91 = getelementptr inbounds i32, i32* %90, i64 4
  %92 = bitcast i32* %91 to <4 x i32>*
  %93 = load <4 x i32>, <4 x i32>* %92, align 16, !tbaa !5
  %94 = shl nsw <4 x i32> %93, <i32 1, i32 1, i32 1, i32 1>
  %95 = icmp eq <4 x i32> %45, %94
  %96 = zext <4 x i1> %95 to <4 x i32>
  %97 = add <4 x i32> %88, %96
  %98 = bitcast i32* %90 to <4 x i32>*
  %99 = load <4 x i32>, <4 x i32>* %98, align 16, !tbaa !5
  %100 = shl nsw <4 x i32> %99, <i32 1, i32 1, i32 1, i32 1>
  %101 = icmp eq <4 x i32> %43, %100
  %102 = zext <4 x i1> %101 to <4 x i32>
  %103 = add <4 x i32> %87, %102
  br label %104

104:                                              ; preds = %83, %89
  %105 = phi <4 x i32> [ %84, %83 ], [ %103, %89 ]
  %106 = phi <4 x i32> [ %85, %83 ], [ %97, %89 ]
  %107 = add <4 x i32> %106, %105
  %108 = call i32 @llvm.vector.reduce.add.v4i32(<4 x i32> %107)
  br i1 %22, label %123, label %109

109:                                              ; preds = %39, %104
  %110 = phi i64 [ 0, %39 ], [ %17, %104 ]
  %111 = phi i32 [ %34, %39 ], [ %108, %104 ]
  br label %112

112:                                              ; preds = %109, %112
  %113 = phi i64 [ %121, %112 ], [ %110, %109 ]
  %114 = phi i32 [ %120, %112 ], [ %111, %109 ]
  %115 = getelementptr inbounds [16 x i32], [16 x i32]* %1, i64 0, i64 %113
  %116 = load i32, i32* %115, align 4, !tbaa !5
  %117 = shl nsw i32 %116, 1
  %118 = icmp eq i32 %36, %117
  %119 = zext i1 %118 to i32
  %120 = add nsw i32 %114, %119
  %121 = add nuw nsw i64 %113, 1
  %122 = icmp eq i64 %121, %11
  br i1 %122, label %123, label %112, !llvm.loop !13

123:                                              ; preds = %112, %104, %32
  %124 = phi i32 [ %34, %32 ], [ %108, %104 ], [ %120, %112 ]
  %125 = add nuw nsw i64 %33, 1
  %126 = icmp eq i64 %125, %11
  br i1 %126, label %127, label %32, !llvm.loop !15

127:                                              ; preds = %123, %7
  %128 = phi i32 [ 0, %7 ], [ %124, %123 ]
  %129 = call nonnull align 8 dereferenceable(8) %"class.std::basic_ostream"* @_ZNSolsEi(%"class.std::basic_ostream"* nonnull align 8 dereferenceable(8) @_ZSt4cout, i32 %128)
  %130 = bitcast %"class.std::basic_ostream"* %129 to i8**
  %131 = load i8*, i8** %130, align 8, !tbaa !16
  %132 = getelementptr i8, i8* %131, i64 -24
  %133 = bitcast i8* %132 to i64*
  %134 = load i64, i64* %133, align 8
  %135 = bitcast %"class.std::basic_ostream"* %129 to i8*
  %136 = add nsw i64 %134, 240
  %137 = getelementptr inbounds i8, i8* %135, i64 %136
  %138 = bitcast i8* %137 to %"class.std::ctype"**
  %139 = load %"class.std::ctype"*, %"class.std::ctype"** %138, align 8, !tbaa !18
  %140 = icmp eq %"class.std::ctype"* %139, null
  br i1 %140, label %141, label %142

141:                                              ; preds = %127
  call void @_ZSt16__throw_bad_castv() #9
  unreachable

142:                                              ; preds = %127
  %143 = getelementptr inbounds %"class.std::ctype", %"class.std::ctype"* %139, i64 0, i32 8
  %144 = load i8, i8* %143, align 8, !tbaa !22
  %145 = icmp eq i8 %144, 0
  br i1 %145, label %149, label %146

146:                                              ; preds = %142
  %147 = getelementptr inbounds %"class.std::ctype", %"class.std::ctype"* %139, i64 0, i32 9, i64 10
  %148 = load i8, i8* %147, align 1, !tbaa !24
  br label %155

149:                                              ; preds = %142
  call void @_ZNKSt5ctypeIcE13_M_widen_initEv(%"class.std::ctype"* nonnull align 8 dereferenceable(570) %139)
  %150 = bitcast %"class.std::ctype"* %139 to i8 (%"class.std::ctype"*, i8)***
  %151 = load i8 (%"class.std::ctype"*, i8)**, i8 (%"class.std::ctype"*, i8)*** %150, align 8, !tbaa !16
  %152 = getelementptr inbounds i8 (%"class.std::ctype"*, i8)*, i8 (%"class.std::ctype"*, i8)** %151, i64 6
  %153 = load i8 (%"class.std::ctype"*, i8)*, i8 (%"class.std::ctype"*, i8)** %152, align 8
  %154 = call signext i8 %153(%"class.std::ctype"* nonnull align 8 dereferenceable(570) %139, i8 signext 10)
  br label %155

155:                                              ; preds = %146, %149
  %156 = phi i8 [ %148, %146 ], [ %154, %149 ]
  %157 = call nonnull align 8 dereferenceable(8) %"class.std::basic_ostream"* @_ZNSo3putEc(%"class.std::basic_ostream"* nonnull align 8 dereferenceable(8) %129, i8 signext %156)
  %158 = call nonnull align 8 dereferenceable(8) %"class.std::basic_ostream"* @_ZNSo5flushEv(%"class.std::basic_ostream"* nonnull align 8 dereferenceable(8) %157)
  %159 = call nonnull align 8 dereferenceable(16) %"class.std::basic_istream"* @_ZNSirsERi(%"class.std::basic_istream"* nonnull align 8 dereferenceable(16) @_ZSt3cin, i32* nonnull align 4 dereferenceable(4) %3)
  %160 = load i32, i32* %3, align 16, !tbaa !5
  %161 = icmp eq i32 %160, -1
  br i1 %161, label %162, label %7, !llvm.loop !25

162:                                              ; preds = %155, %0
  call void @llvm.lifetime.end.p0i8(i64 64, i8* nonnull %2) #8
  ret i32 0
}

; Function Attrs: argmemonly mustprogress nofree nosync nounwind willreturn
declare void @llvm.lifetime.start.p0i8(i64 immarg, i8* nocapture) #4

declare nonnull align 8 dereferenceable(16) %"class.std::basic_istream"* @_ZNSirsERi(%"class.std::basic_istream"* nonnull align 8 dereferenceable(16), i32* nonnull align 4 dereferenceable(4)) local_unnamed_addr #0

declare nonnull align 8 dereferenceable(8) %"class.std::basic_ostream"* @_ZNSolsEi(%"class.std::basic_ostream"* nonnull align 8 dereferenceable(8), i32) local_unnamed_addr #0

; Function Attrs: argmemonly mustprogress nofree nosync nounwind willreturn
declare void @llvm.lifetime.end.p0i8(i64 immarg, i8* nocapture) #4

declare nonnull align 8 dereferenceable(8) %"class.std::basic_ostream"* @_ZNSo3putEc(%"class.std::basic_ostream"* nonnull align 8 dereferenceable(8), i8 signext) local_unnamed_addr #0

declare nonnull align 8 dereferenceable(8) %"class.std::basic_ostream"* @_ZNSo5flushEv(%"class.std::basic_ostream"* nonnull align 8 dereferenceable(8)) local_unnamed_addr #0

; Function Attrs: noreturn
declare void @_ZSt16__throw_bad_castv() local_unnamed_addr #5

declare void @_ZNKSt5ctypeIcE13_M_widen_initEv(%"class.std::ctype"* nonnull align 8 dereferenceable(570)) local_unnamed_addr #0

; Function Attrs: sspstrong uwtable
define internal void @_GLOBAL__sub_I_1386.cpp() #6 section ".text.startup" {
  tail call void @_ZNSt8ios_base4InitC1Ev(%"class.std::ios_base::Init"* nonnull align 1 dereferenceable(1) @_ZStL8__ioinit)
  %1 = tail call i32 @__cxa_atexit(void (i8*)* bitcast (void (%"class.std::ios_base::Init"*)* @_ZNSt8ios_base4InitD1Ev to void (i8*)*), i8* getelementptr inbounds (%"class.std::ios_base::Init", %"class.std::ios_base::Init"* @_ZStL8__ioinit, i64 0, i32 0), i8* nonnull @__dso_handle) #8
  ret void
}

; Function Attrs: nofree nosync nounwind readnone willreturn
declare i32 @llvm.vector.reduce.add.v4i32(<4 x i32>) #7


!llvm.module.flags = !{!0, !1, !2, !3}
!llvm.ident = !{!4}

!0 = !{i32 1, !"wchar_size", i32 4}
!1 = !{i32 7, !"PIC Level", i32 2}
!2 = !{i32 7, !"PIE Level", i32 2}
!3 = !{i32 7, !"uwtable", i32 1}
!4 = !{!"clang version 13.0.0"}
!5 = !{!6, !6, i64 0}
!6 = !{!"int", !7, i64 0}
!7 = !{!"omnipotent char", !8, i64 0}
!8 = !{!"Simple C++ TBAA"}
!9 = distinct !{!9, !10}
!10 = !{!"llvm.loop.mustprogress"}
!11 = distinct !{!11, !10, !12}
!12 = !{!"llvm.loop.isvectorized", i32 1}
!13 = distinct !{!13, !10, !14, !12}
!14 = !{!"llvm.loop.unroll.runtime.disable"}
!15 = distinct !{!15, !10}
!16 = !{!17, !17, i64 0}
!17 = !{!"vtable pointer", !8, i64 0}
!18 = !{!19, !20, i64 240}
!19 = !{!"_ZTSSt9basic_iosIcSt11char_traitsIcEE", !20, i64 216, !7, i64 224, !21, i64 225, !20, i64 232, !20, i64 240, !20, i64 248, !20, i64 256}
!20 = !{!"any pointer", !7, i64 0}
!21 = !{!"bool", !7, i64 0}
!22 = !{!23, !7, i64 56}
!23 = !{!"_ZTSSt5ctypeIcE", !20, i64 16, !21, i64 24, !20, i64 32, !20, i64 40, !20, i64 48, !7, i64 56, !7, i64 57, !7, i64 313, !7, i64 569}
!24 = !{!7, !7, i64 0}
!25 = distinct !{!25, !10}
